target datalayout = "e-m:e-p270:32:32-p271:32:32-p272:64:64-i64:64-i128:128-f80:128-n8:16:32:64-S128"
target triple = "x86_64-pc-linux-gnu"

%class.b3Vector3 = type { %union.anon }
%union.anon = type { [4 x float] }
%struct.b3DbvtNode = type { %struct.b3DbvtAabbMm, ptr, %union.anon.4, [8 x i8] }
%struct.b3DbvtAabbMm = type { %class.b3Vector3, %class.b3Vector3 }
%union.anon.4 = type { [2 x ptr] }

; Function Attrs: inlinehint mustprogress nounwind uwtable
define linkonce_odr dso_local noundef zeroext i1 @_ZNK10b3DbvtNode6isleafEv(ptr noundef nonnull align 16 dereferenceable(56) %0) #6 comdat align 2 {
  %2 = alloca ptr, align 8
  store ptr %0, ptr %2, align 8, !tbaa !28
  %3 = load ptr, ptr %2, align 8
  %4 = getelementptr inbounds nuw %struct.b3DbvtNode, ptr %3, i32 0, i32 2
  %5 = getelementptr inbounds [2 x ptr], ptr %4, i64 0, i64 1
  %6 = load ptr, ptr %5, align 8, !tbaa !29
  %7 = icmp eq ptr %6, null
  ret i1 %7
}

; Function Attrs: inlinehint mustprogress nounwind uwtable
define linkonce_odr dso_local noundef zeroext i1 @_ZNK10b3DbvtNode10isinternalEv(ptr noundef nonnull align 16 dereferenceable(56) %0) #6 comdat align 2 {
  %2 = alloca ptr, align 8
  store ptr %0, ptr %2, align 8, !tbaa !28
  %3 = load ptr, ptr %2, align 8
  %4 = call noundef zeroext i1 @_ZNK10b3DbvtNode6isleafEv(ptr noundef nonnull align 16 dereferenceable(56) %3)
  %5 = xor i1 %4, true
  ret i1 %5
}

; Function Attrs: mustprogress uwtable
define dso_local noundef i32 @_ZN12b3DynamicBvh11countLeavesEPK10b3DbvtNode(ptr noundef %0) #0 align 2 {
  %2 = alloca i32, align 4
  %3 = alloca ptr, align 8
  store ptr %0, ptr %3, align 8, !tbaa !28
  %4 = load ptr, ptr %3, align 8, !tbaa !28
  %5 = call noundef zeroext i1 @_ZNK10b3DbvtNode10isinternalEv(ptr noundef nonnull align 16 dereferenceable(56) %4)
  br i1 %5, label %6, label %18

6:                                                ; preds = %1
  %7 = load ptr, ptr %3, align 8, !tbaa !28
  %8 = getelementptr inbounds nuw %struct.b3DbvtNode, ptr %7, i32 0, i32 2
  %9 = getelementptr inbounds [2 x ptr], ptr %8, i64 0, i64 0
  %10 = load ptr, ptr %9, align 8, !tbaa !29
  %11 = call noundef i32 @_ZN12b3DynamicBvh11countLeavesEPK10b3DbvtNode(ptr noundef %10)
  %12 = load ptr, ptr %3, align 8, !tbaa !28
  %13 = getelementptr inbounds nuw %struct.b3DbvtNode, ptr %12, i32 0, i32 2
  %14 = getelementptr inbounds [2 x ptr], ptr %13, i64 0, i64 1
  %15 = load ptr, ptr %14, align 8, !tbaa !29
  %16 = call noundef i32 @_ZN12b3DynamicBvh11countLeavesEPK10b3DbvtNode(ptr noundef %15)
  %17 = add nsw i32 %11, %16
  store i32 %17, ptr %2, align 4
  br label %19

18:                                               ; preds = %1
  store i32 1, ptr %2, align 4
  br label %19

19:                                               ; preds = %18, %6
  %20 = load i32, ptr %2, align 4
  ret i32 %20
}