; Function Attrs: mustprogress nofree nosync nounwind willreturn memory(read, inaccessiblemem: none) uwtable
define dso_local noundef range(i32 -2147483647, -2147483648) i32 @_ZN12b3DynamicBvh11countLeavesEPK10b3DbvtNode(ptr noundef readonly captures(none) %0) local_unnamed_addr #12 align 2 {
  %2 = getelementptr inbounds nuw i8, ptr %0, i64 48
  %3 = load ptr, ptr %2, align 8, !tbaa !32
  %.not3 = icmp eq ptr %3, null
  br i1 %.not3, label %tailrecurse._crit_edge, label %tailrecurse

tailrecurse:                                      ; preds = %1, %tailrecurse
  %4 = phi ptr [ %10, %tailrecurse ], [ %3, %1 ]
  %.tr5 = phi ptr [ %4, %tailrecurse ], [ %0, %1 ]
  %accumulator.tr4 = phi i32 [ %8, %tailrecurse ], [ 0, %1 ]
  %5 = getelementptr inbounds nuw i8, ptr %.tr5, i64 40
  %6 = load ptr, ptr %5, align 8, !tbaa !32
  %7 = tail call noundef i32 @_ZN12b3DynamicBvh11countLeavesEPK10b3DbvtNode(ptr noundef %6)
  %8 = add nsw i32 %7, %accumulator.tr4
  %9 = getelementptr inbounds nuw i8, ptr %4, i64 48
  %10 = load ptr, ptr %9, align 8, !tbaa !32
  %.not = icmp eq ptr %10, null
  br i1 %.not, label %tailrecurse._crit_edge.loopexit, label %tailrecurse

tailrecurse._crit_edge.loopexit:                  ; preds = %tailrecurse
  %11 = add nsw i32 %8, 1
  br label %tailrecurse._crit_edge

tailrecurse._crit_edge:                           ; preds = %tailrecurse._crit_edge.loopexit, %1
  %accumulator.tr.lcssa = phi i32 [ 1, %1 ], [ %11, %tailrecurse._crit_edge.loopexit ]
  ret i32 %accumulator.tr.lcssa
}